target datalayout = "e-m:e-p270:32:32-p271:32:32-p272:64:64-i64:64-i128:128-f80:128-n8:16:32:64-S128"
target triple = "x86_64-unknown-linux-gnu"

%class.b3CpuRigidBodyPipeline = type { ptr, ptr }
%struct.b3CpuRigidBodyPipelineInternalData = type { %class.b3AlignedObjectArray, %class.b3AlignedObjectArray.0, %class.b3AlignedObjectArray.4, ptr, ptr, %struct.b3Config }
%class.b3AlignedObjectArray = type <{ %class.b3AlignedAllocator, [3 x i8], i32, i32, [4 x i8], ptr, i8, [7 x i8] }>
%class.b3AlignedAllocator = type { i8 }
%class.b3AlignedObjectArray.0 = type <{ %class.b3AlignedAllocator.1, [3 x i8], i32, i32, [4 x i8], ptr, i8, [7 x i8] }>
%class.b3AlignedAllocator.1 = type { i8 }
%class.b3AlignedObjectArray.4 = type <{ %class.b3AlignedAllocator.5, [3 x i8], i32, i32, [4 x i8], ptr, i8, [7 x i8] }>
%class.b3AlignedAllocator.5 = type { i8 }
%struct.b3Config = type { i32, i32, i32, i32, i32, i32, i32, i32, i32, i32, i32, i32 }
%class.b3Vector3 = type { %union.anon }
%union.anon = type { [4 x float] }
%class.b3Quaternion = type { %class.b3QuadWord }
%class.b3QuadWord = type { %union.anon.8 }
%union.anon.8 = type { [4 x float] }
%struct.b3RigidBodyData = type { %class.b3Vector3, %class.b3Quaternion, %class.b3Vector3, %class.b3Vector3, i32, float, float, float }

; Function Attrs: mustprogress nounwind uwtable
define linkonce_odr dso_local void @_ZN9b3Vector38setValueERKfS1_S1_(ptr noundef nonnull align 16 dereferenceable(16) %this, ptr noundef nonnull align 4 dereferenceable(4) %_x, ptr noundef nonnull align 4 dereferenceable(4) %_y, ptr noundef nonnull align 4 dereferenceable(4) %_z) #4 comdat align 2 {
entry:
  %this.addr = alloca ptr, align 8
  %_x.addr = alloca ptr, align 8
  %_y.addr = alloca ptr, align 8
  %_z.addr = alloca ptr, align 8
  store ptr %this, ptr %this.addr, align 8
  store ptr %_x, ptr %_x.addr, align 8
  store ptr %_y, ptr %_y.addr, align 8
  store ptr %_z, ptr %_z.addr, align 8
  %this1 = load ptr, ptr %this.addr, align 8
  %0 = load ptr, ptr %_x.addr, align 8
  %1 = load float, ptr %0, align 4
  %2 = getelementptr inbounds %class.b3Vector3, ptr %this1, i32 0, i32 0
  %arrayidx = getelementptr inbounds [4 x float], ptr %2, i64 0, i64 0
  store float %1, ptr %arrayidx, align 16
  %3 = load ptr, ptr %_y.addr, align 8
  %4 = load float, ptr %3, align 4
  %5 = getelementptr inbounds %class.b3Vector3, ptr %this1, i32 0, i32 0
  %arrayidx2 = getelementptr inbounds [4 x float], ptr %5, i64 0, i64 1
  store float %4, ptr %arrayidx2, align 4
  %6 = load ptr, ptr %_z.addr, align 8
  %7 = load float, ptr %6, align 4
  %8 = getelementptr inbounds %class.b3Vector3, ptr %this1, i32 0, i32 0
  %arrayidx3 = getelementptr inbounds [4 x float], ptr %8, i64 0, i64 2
  store float %7, ptr %arrayidx3, align 8
  %9 = getelementptr inbounds %class.b3Vector3, ptr %this1, i32 0, i32 0
  %arrayidx4 = getelementptr inbounds [4 x float], ptr %9, i64 0, i64 3
  store float 0.000000e+00, ptr %arrayidx4, align 4
  ret void
}

; Function Attrs: mustprogress nounwind uwtable
define linkonce_odr dso_local noundef nonnull align 16 dereferenceable(80) ptr @_ZN20b3AlignedObjectArrayI15b3RigidBodyDataEixEi(ptr noundef nonnull align 8 dereferenceable(25) %this, i32 noundef %n) #4 comdat align 2 {
entry:
  %this.addr = alloca ptr, align 8
  %n.addr = alloca i32, align 4
  store ptr %this, ptr %this.addr, align 8
  store i32 %n, ptr %n.addr, align 4
  %this1 = load ptr, ptr %this.addr, align 8
  %m_data = getelementptr inbounds %class.b3AlignedObjectArray, ptr %this1, i32 0, i32 5
  %0 = load ptr, ptr %m_data, align 8
  %1 = load i32, ptr %n.addr, align 4
  %idxprom = sext i32 %1 to i64
  %arrayidx = getelementptr inbounds %struct.b3RigidBodyData, ptr %0, i64 %idxprom
  ret ptr %arrayidx
}

; Function Attrs: mustprogress nounwind uwtable
define linkonce_odr dso_local noundef i32 @_ZNK20b3AlignedObjectArrayI15b3RigidBodyDataE4sizeEv(ptr noundef nonnull align 8 dereferenceable(25) %this) #4 comdat align 2 {
entry:
  %this.addr = alloca ptr, align 8
  store ptr %this, ptr %this.addr, align 8
  %this1 = load ptr, ptr %this.addr, align 8
  %m_size = getelementptr inbounds %class.b3AlignedObjectArray, ptr %this1, i32 0, i32 2
  %0 = load i32, ptr %m_size, align 4
  ret i32 %0
}

; Function Attrs: mustprogress uwtable
define linkonce_odr dso_local { <2 x float>, <2 x float> } @_Z13b3MakeVector3fff(float noundef %x, float noundef %y, float noundef %z) #0 comdat {
entry:
  %retval = alloca %class.b3Vector3, align 16
  %x.addr = alloca float, align 4
  %y.addr = alloca float, align 4
  %z.addr = alloca float, align 4
  store float %x, ptr %x.addr, align 4
  store float %y, ptr %y.addr, align 4
  store float %z, ptr %z.addr, align 4
  call void @_ZN9b3Vector38setValueERKfS1_S1_(ptr noundef nonnull align 16 dereferenceable(16) %retval, ptr noundef nonnull align 4 dereferenceable(4) %x.addr, ptr noundef nonnull align 4 dereferenceable(4) %y.addr, ptr noundef nonnull align 4 dereferenceable(4) %z.addr)
  %coerce.dive = getelementptr inbounds %class.b3Vector3, ptr %retval, i32 0, i32 0
  %coerce.dive1 = getelementptr inbounds %union.anon, ptr %coerce.dive, i32 0, i32 0
  %0 = load { <2 x float>, <2 x float> }, ptr %coerce.dive1, align 16
  ret { <2 x float>, <2 x float> } %0
}

; Function Attrs: mustprogress uwtable
define dso_local void @_ZN22b3CpuRigidBodyPipeline9integrateEf(ptr noundef nonnull align 8 dereferenceable(16) %this, float noundef %deltaTime) unnamed_addr #6 align 2 {
entry:
  %this.addr = alloca ptr, align 8
  %deltaTime.addr = alloca float, align 4
  %angDamping = alloca float, align 4
  %gravityAcceleration = alloca %class.b3Vector3, align 16
  %i = alloca i32, align 4
  store ptr %this, ptr %this.addr, align 8
  store float %deltaTime, ptr %deltaTime.addr, align 4
  %this1 = load ptr, ptr %this.addr, align 8
  store float 0.000000e+00, ptr %angDamping, align 4
  %call = call { <2 x float>, <2 x float> } @_Z13b3MakeVector3fff(float noundef 0.000000e+00, float noundef -9.000000e+00, float noundef 0.000000e+00)
  %coerce.dive = getelementptr inbounds %class.b3Vector3, ptr %gravityAcceleration, i32 0, i32 0
  %coerce.dive2 = getelementptr inbounds %union.anon, ptr %coerce.dive, i32 0, i32 0
  %0 = getelementptr inbounds { <2 x float>, <2 x float> }, ptr %coerce.dive2, i32 0, i32 0
  %1 = extractvalue { <2 x float>, <2 x float> } %call, 0
  store <2 x float> %1, ptr %0, align 16
  %2 = getelementptr inbounds { <2 x float>, <2 x float> }, ptr %coerce.dive2, i32 0, i32 1
  %3 = extractvalue { <2 x float>, <2 x float> } %call, 1
  store <2 x float> %3, ptr %2, align 8
  store i32 0, ptr %i, align 4
  br label %for.cond

for.cond:                                         ; preds = %for.inc, %entry
  %4 = load i32, ptr %i, align 4
  %m_data = getelementptr inbounds %class.b3CpuRigidBodyPipeline, ptr %this1, i32 0, i32 1
  %5 = load ptr, ptr %m_data, align 8
  %m_rigidBodies = getelementptr inbounds %struct.b3CpuRigidBodyPipelineInternalData, ptr %5, i32 0, i32 0
  %call3 = call noundef i32 @_ZNK20b3AlignedObjectArrayI15b3RigidBodyDataE4sizeEv(ptr noundef nonnull align 8 dereferenceable(25) %m_rigidBodies)
  %cmp = icmp slt i32 %4, %call3
  br i1 %cmp, label %for.body, label %for.end

for.body:                                         ; preds = %for.cond
  %m_data4 = getelementptr inbounds %class.b3CpuRigidBodyPipeline, ptr %this1, i32 0, i32 1
  %6 = load ptr, ptr %m_data4, align 8
  %m_rigidBodies5 = getelementptr inbounds %struct.b3CpuRigidBodyPipelineInternalData, ptr %6, i32 0, i32 0
  %7 = load i32, ptr %i, align 4
  %call6 = call noundef nonnull align 16 dereferenceable(80) ptr @_ZN20b3AlignedObjectArrayI15b3RigidBodyDataEixEi(ptr noundef nonnull align 8 dereferenceable(25) %m_rigidBodies5, i32 noundef %7)
  %8 = load float, ptr %deltaTime.addr, align 4
  %9 = load float, ptr %angDamping, align 4
  call void @_Z20b3IntegrateTransformP15b3RigidBodyDataffRK9b3Vector3(ptr noundef %call6, float noundef %8, float noundef %9, ptr noundef nonnull align 16 dereferenceable(16) %gravityAcceleration)
  br label %for.inc

for.inc:                                          ; preds = %for.body
  %10 = load i32, ptr %i, align 4
  %inc = add nsw i32 %10, 1
  store i32 %inc, ptr %i, align 4
  br label %for.cond, !llvm.loop !14

for.end:                                          ; preds = %for.cond
  ret void
}