; Function Attrs: mustprogress uwtable
define dso_local void @_ZN22b3CpuRigidBodyPipeline9integrateEf(ptr nocapture noundef nonnull readonly align 8 dereferenceable(16) %this, float noundef %deltaTime) unnamed_addr #7 align 2 {
entry:
  %gravityAcceleration = alloca %class.b3Vector3, align 16
  store <2 x float> <float 0.000000e+00, float -9.000000e+00>, ptr %gravityAcceleration, align 16
  %0 = getelementptr inbounds i8, ptr %gravityAcceleration, i64 8
  store <2 x float> zeroinitializer, ptr %0, align 8
  %m_data = getelementptr inbounds i8, ptr %this, i64 8
  %1 = load ptr, ptr %m_data, align 8
  %m_size.i3 = getelementptr inbounds i8, ptr %1, i64 4
  %2 = load i32, ptr %m_size.i3, align 4
  %cmp4 = icmp sgt i32 %2, 0
  br i1 %cmp4, label %for.body, label %for.end

for.body:                                         ; preds = %entry, %for.body
  %indvars.iv = phi i64 [ %indvars.iv.next, %for.body ], [ 0, %entry ]
  %3 = phi ptr [ %5, %for.body ], [ %1, %entry ]
  %m_data.i = getelementptr inbounds i8, ptr %3, i64 16
  %4 = load ptr, ptr %m_data.i, align 8
  %arrayidx.i = getelementptr inbounds %struct.b3RigidBodyData, ptr %4, i64 %indvars.iv
  call void @_Z20b3IntegrateTransformP15b3RigidBodyDataffRK9b3Vector3(ptr noundef nonnull %arrayidx.i, float noundef %deltaTime, float noundef 0.000000e+00, ptr noundef nonnull align 16 dereferenceable(16) %gravityAcceleration)
  %indvars.iv.next = add nuw nsw i64 %indvars.iv, 1
  %5 = load ptr, ptr %m_data, align 8
  %m_size.i = getelementptr inbounds i8, ptr %5, i64 4
  %6 = load i32, ptr %m_size.i, align 4
  %7 = sext i32 %6 to i64
  %cmp = icmp slt i64 %indvars.iv.next, %7
  br i1 %cmp, label %for.body, label %for.end, !llvm.loop !18

for.end:                                          ; preds = %for.body, %entry
  ret void
}